target datalayout = "e-m:e-p270:32:32-p271:32:32-p272:64:64-i64:64-i128:128-f80:128-n8:16:32:64-S128"
target triple = "x86_64-pc-linux-gnu"

%struct.mbedtls_ssl_context = type { ptr, i32, i32, i32, i32, i32, ptr, ptr, ptr, ptr, ptr, ptr, ptr, ptr, ptr, ptr, ptr, ptr, ptr, ptr, ptr, ptr, ptr, ptr, ptr, ptr, ptr, ptr, ptr, ptr, ptr, ptr, ptr, i32, i64, i64, i16, i64, i64, i64, i64, i32, i32, i8, i8, i32, i8, ptr, ptr, ptr, ptr, ptr, ptr, ptr, i32, i64, i64, [8 x i8], i16, ptr, ptr, ptr, i64, i32, i64, [12 x i8], [12 x i8], [32 x i8], i8, i8, ptr, ptr, %union.mbedtls_ssl_user_data_t }
%union.mbedtls_ssl_user_data_t = type { i64 }
%struct.mbedtls_ssl_handshake_params = type { i8, i8, i8, i8, i8, i32, i8, i8, i8, i8, ptr, ptr, ptr, ptr, ptr, i8, i8, i8, i8, i16, i16, [20 x i16], ptr, ptr, %struct.mbedtls_dhm_context, %struct.mbedtls_ecdh_context, i16, i64, i32, i8, [1024 x i8], i64, ptr, ptr, i64, i16, ptr, ptr, ptr, ptr, %struct.anon, ptr, i16, i8, i32, i32, i32, ptr, ptr, ptr, i32, ptr, [8 x i8], i8, [32 x i8], i8, i16, %struct.mbedtls_md_context_t, %struct.mbedtls_md_context_t, i16, i8, %union.anon.1, [64 x i8], [1076 x i8], i64, i32, i32, i8, ptr, ptr, %union.anon.4, %struct.mbedtls_ssl_tls13_handshake_secrets, ptr, i64, ptr }
%struct.mbedtls_dhm_context = type { %struct.mbedtls_mpi, %struct.mbedtls_mpi, %struct.mbedtls_mpi, %struct.mbedtls_mpi, %struct.mbedtls_mpi, %struct.mbedtls_mpi, %struct.mbedtls_mpi, %struct.mbedtls_mpi, %struct.mbedtls_mpi, %struct.mbedtls_mpi }
%struct.mbedtls_mpi = type { ptr, i16, i16 }
%struct.mbedtls_ecdh_context = type { i8, i32, i32, %union.anon }
%union.anon = type { %struct.mbedtls_ecdh_context_mbed }
%struct.mbedtls_ecdh_context_mbed = type { %struct.mbedtls_ecp_group, %struct.mbedtls_mpi, %struct.mbedtls_ecp_point, %struct.mbedtls_ecp_point, %struct.mbedtls_mpi }
%struct.mbedtls_ecp_group = type { i32, %struct.mbedtls_mpi, %struct.mbedtls_mpi, %struct.mbedtls_mpi, %struct.mbedtls_ecp_point, %struct.mbedtls_mpi, i64, i64, i32, ptr, ptr, ptr, ptr, ptr, i64 }
%struct.mbedtls_ecp_point = type { %struct.mbedtls_mpi, %struct.mbedtls_mpi, %struct.mbedtls_mpi }
%struct.anon = type { i64, i8, [4 x %struct.mbedtls_ssl_hs_buffer], %struct.anon.0 }
%struct.mbedtls_ssl_hs_buffer = type { i8, ptr, i64 }
%struct.anon.0 = type { ptr, i64, i32 }
%struct.mbedtls_md_context_t = type { ptr, ptr, ptr }
%union.anon.1 = type { %struct.anon.2 }
%struct.anon.2 = type { i8, [64 x i8], i64 }
%union.anon.4 = type { [64 x i8] }
%struct.mbedtls_ssl_tls13_handshake_secrets = type { [64 x i8], [64 x i8] }

@.str = private unnamed_addr constant [130 x i8] c"generated/home/dtcxzyw/WorkSpace/Projects/compilers/llvm-opt-benchmark/bench/lief/bench_build/mbed_src/library/ssl_tls13_server.c\00", align 1
@.str.97 = private unnamed_addr constant [32 x i8] c"Skip key_share extension in HRR\00", align 1
@.str.98 = private unnamed_addr constant [30 x i8] c"no matching named group found\00", align 1
@.str.99 = private unnamed_addr constant [28 x i8] c"HRR selected_group: %s (%x)\00", align 1

; Function Attrs: inlinehint nounwind uwtable
define internal i32 @mbedtls_ssl_tls13_key_exchange_mode_check(ptr noundef %0, i32 noundef %1) #3 {
  %3 = alloca ptr, align 8
  %4 = alloca i32, align 4
  store ptr %0, ptr %3, align 8, !tbaa !3
  store i32 %1, ptr %4, align 4, !tbaa !8
  %5 = load ptr, ptr %3, align 8, !tbaa !3
  %6 = getelementptr inbounds nuw %struct.mbedtls_ssl_context, ptr %5, i32 0, i32 16
  %7 = load ptr, ptr %6, align 8, !tbaa !19
  %8 = getelementptr inbounds nuw %struct.mbedtls_ssl_handshake_params, ptr %7, i32 0, i32 15
  %9 = load i8, ptr %8, align 8, !tbaa !72
  %10 = zext i8 %9 to i32
  %11 = load i32, ptr %4, align 4, !tbaa !8
  %12 = and i32 %10, %11
  %13 = icmp ne i32 %12, 0
  %14 = zext i1 %13 to i32
  ret i32 %14
}

; Function Attrs: inlinehint nounwind uwtable
define internal void @mbedtls_ssl_tls13_set_hs_sent_ext_mask(ptr noundef %0, i32 noundef %1) #3 {
  %3 = alloca ptr, align 8
  %4 = alloca i32, align 4
  store ptr %0, ptr %3, align 8, !tbaa !3
  store i32 %1, ptr %4, align 4, !tbaa !8
  %5 = load i32, ptr %4, align 4, !tbaa !8
  %6 = call i32 @mbedtls_ssl_get_extension_mask(i32 noundef %5)
  %7 = load ptr, ptr %3, align 8, !tbaa !3
  %8 = getelementptr inbounds nuw %struct.mbedtls_ssl_context, ptr %7, i32 0, i32 16
  %9 = load ptr, ptr %8, align 8, !tbaa !19
  %10 = getelementptr inbounds nuw %struct.mbedtls_ssl_handshake_params, ptr %9, i32 0, i32 65
  %11 = load i32, ptr %10, align 8, !tbaa !121
  %12 = or i32 %11, %6
  store i32 %12, ptr %10, align 8, !tbaa !121
  ret void
}

; Function Attrs: alwaysinline nounwind uwtable
define internal void @mbedtls_put_unaligned_uint16(ptr noundef %0, i16 noundef zeroext %1) #5 {
  %3 = alloca ptr, align 8
  %4 = alloca i16, align 2
  store ptr %0, ptr %3, align 8, !tbaa !81
  store i16 %1, ptr %4, align 2, !tbaa !82
  %5 = load ptr, ptr %3, align 8, !tbaa !81
  call void @llvm.memcpy.p0.p0.i64(ptr align 1 %5, ptr align 2 %4, i64 2, i1 false)
  ret void
}

; Function Attrs: inlinehint nounwind uwtable
define internal i32 @mbedtls_ssl_chk_buf_ptr(ptr noundef %0, ptr noundef %1, i64 noundef %2) #3 {
  %4 = alloca ptr, align 8
  %5 = alloca ptr, align 8
  %6 = alloca i64, align 8
  store ptr %0, ptr %4, align 8, !tbaa !41
  store ptr %1, ptr %5, align 8, !tbaa !41
  store i64 %2, ptr %6, align 8, !tbaa !42
  %7 = load ptr, ptr %4, align 8, !tbaa !41
  %8 = load ptr, ptr %5, align 8, !tbaa !41
  %9 = icmp ugt ptr %7, %8
  br i1 %9, label %18, label %10

10:                                               ; preds = %3
  %11 = load i64, ptr %6, align 8, !tbaa !42
  %12 = load ptr, ptr %5, align 8, !tbaa !41
  %13 = load ptr, ptr %4, align 8, !tbaa !41
  %14 = ptrtoint ptr %12 to i64
  %15 = ptrtoint ptr %13 to i64
  %16 = sub i64 %14, %15
  %17 = icmp ugt i64 %11, %16
  br label %18

18:                                               ; preds = %10, %3
  %19 = phi i1 [ true, %3 ], [ %17, %10 ]
  %20 = zext i1 %19 to i32
  ret i32 %20
}

; Function Attrs: inlinehint nounwind uwtable
define internal i32 @mbedtls_ssl_tls13_key_exchange_mode_with_ephemeral(ptr noundef %0) #3 {
  %2 = alloca ptr, align 8
  store ptr %0, ptr %2, align 8, !tbaa !3
  %3 = load ptr, ptr %2, align 8, !tbaa !3
  %4 = call i32 @mbedtls_ssl_tls13_key_exchange_mode_check(ptr noundef %3, i32 noundef 6)
  ret i32 %4
}

; Function Attrs: nounwind uwtable
define internal i32 @ssl_tls13_write_hrr_key_share_ext(ptr noundef %0, ptr noundef %1, ptr noundef %2, ptr noundef %3) #0 {
  %5 = alloca i32, align 4
  %6 = alloca ptr, align 8
  %7 = alloca ptr, align 8
  %8 = alloca ptr, align 8
  %9 = alloca ptr, align 8
  %10 = alloca i16, align 2
  %11 = alloca i32, align 4
  store ptr %0, ptr %6, align 8, !tbaa !3
  store ptr %1, ptr %7, align 8, !tbaa !41
  store ptr %2, ptr %8, align 8, !tbaa !41
  store ptr %3, ptr %9, align 8, !tbaa !120
  call void @llvm.lifetime.start.p0(i64 2, ptr %10) #10
  %12 = load ptr, ptr %6, align 8, !tbaa !3
  %13 = getelementptr inbounds nuw %struct.mbedtls_ssl_context, ptr %12, i32 0, i32 16
  %14 = load ptr, ptr %13, align 8, !tbaa !19
  %15 = getelementptr inbounds nuw %struct.mbedtls_ssl_handshake_params, ptr %14, i32 0, i32 19
  %16 = load i16, ptr %15, align 4, !tbaa !89
  store i16 %16, ptr %10, align 2, !tbaa !82
  %17 = load ptr, ptr %9, align 8, !tbaa !120
  store i64 0, ptr %17, align 8, !tbaa !42
  %18 = load ptr, ptr %6, align 8, !tbaa !3
  %19 = call i32 @mbedtls_ssl_tls13_key_exchange_mode_with_ephemeral(ptr noundef %18)
  %20 = icmp ne i32 %19, 0
  br i1 %20, label %22, label %21

21:                                               ; preds = %4
  store i32 0, ptr %5, align 4
  store i32 1, ptr %11, align 4
  br label %63

22:                                               ; preds = %4
  %23 = load ptr, ptr %6, align 8, !tbaa !3
  %24 = getelementptr inbounds nuw %struct.mbedtls_ssl_context, ptr %23, i32 0, i32 16
  %25 = load ptr, ptr %24, align 8, !tbaa !19
  %26 = getelementptr inbounds nuw %struct.mbedtls_ssl_handshake_params, ptr %25, i32 0, i32 59
  %27 = load i16, ptr %26, align 8, !tbaa !91
  %28 = zext i16 %27 to i32
  %29 = icmp ne i32 %28, 0
  br i1 %29, label %30, label %32

30:                                               ; preds = %22
  %31 = load ptr, ptr %6, align 8, !tbaa !3
  call void (ptr, i32, ptr, i32, ptr, ...) @mbedtls_debug_print_msg(ptr noundef %31, i32 noundef 4, ptr noundef @.str, i32 noundef 2214, ptr noundef @.str.97)
  store i32 0, ptr %5, align 4
  store i32 1, ptr %11, align 4
  br label %63

32:                                               ; preds = %22
  %33 = load i16, ptr %10, align 2, !tbaa !82
  %34 = zext i16 %33 to i32
  %35 = icmp eq i32 %34, 0
  br i1 %35, label %36, label %38

36:                                               ; preds = %32
  %37 = load ptr, ptr %6, align 8, !tbaa !3
  call void (ptr, i32, ptr, i32, ptr, ...) @mbedtls_debug_print_msg(ptr noundef %37, i32 noundef 1, ptr noundef @.str, i32 noundef 2219, ptr noundef @.str.98)
  store i32 -28160, ptr %5, align 4
  store i32 1, ptr %11, align 4
  br label %63

38:                                               ; preds = %32
  br label %39

39:                                               ; preds = %38
  %40 = load ptr, ptr %7, align 8, !tbaa !41
  %41 = load ptr, ptr %8, align 8, !tbaa !41
  %42 = call i32 @mbedtls_ssl_chk_buf_ptr(ptr noundef %40, ptr noundef %41, i64 noundef 6)
  %43 = icmp ne i32 %42, 0
  br i1 %43, label %44, label %45

44:                                               ; preds = %39
  store i32 -27136, ptr %5, align 4
  store i32 1, ptr %11, align 4
  br label %63

45:                                               ; preds = %39
  br label %46

46:                                               ; preds = %45
  br label %47

47:                                               ; preds = %46
  %48 = load ptr, ptr %7, align 8, !tbaa !41
  %49 = getelementptr inbounds i8, ptr %48, i64 0
  call void @mbedtls_put_unaligned_uint16(ptr noundef %49, i16 noundef zeroext 13056)
  %50 = load ptr, ptr %7, align 8, !tbaa !41
  %51 = getelementptr inbounds i8, ptr %50, i64 2
  call void @mbedtls_put_unaligned_uint16(ptr noundef %51, i16 noundef zeroext 512)
  %52 = load ptr, ptr %7, align 8, !tbaa !41
  %53 = getelementptr inbounds i8, ptr %52, i64 4
  %54 = load i16, ptr %10, align 2, !tbaa !82
  %55 = call i16 @llvm.bswap.i16(i16 %54)
  call void @mbedtls_put_unaligned_uint16(ptr noundef %53, i16 noundef zeroext %55)
  %56 = load ptr, ptr %6, align 8, !tbaa !3
  %57 = load i16, ptr %10, align 2, !tbaa !82
  %58 = call ptr @mbedtls_ssl_named_group_to_str(i16 noundef zeroext %57)
  %59 = load i16, ptr %10, align 2, !tbaa !82
  %60 = zext i16 %59 to i32
  call void (ptr, i32, ptr, i32, ptr, ...) @mbedtls_debug_print_msg(ptr noundef %56, i32 noundef 3, ptr noundef @.str, i32 noundef 2237, ptr noundef @.str.99, ptr noundef %58, i32 noundef %60)
  %61 = load ptr, ptr %9, align 8, !tbaa !120
  store i64 6, ptr %61, align 8, !tbaa !42
  %62 = load ptr, ptr %6, align 8, !tbaa !3
  call void @mbedtls_ssl_tls13_set_hs_sent_ext_mask(ptr noundef %62, i32 noundef 51)
  store i32 0, ptr %5, align 4
  store i32 1, ptr %11, align 4
  br label %63

63:                                               ; preds = %47, %44, %36, %30, %21
  call void @llvm.lifetime.end.p0(i64 2, ptr %10) #10
  %64 = load i32, ptr %5, align 4
  ret i32 %64
}