; Function Attrs: nounwind uwtable
define internal fastcc range(i32 -28160, 1) i32 @ssl_tls13_write_hrr_key_share_ext(ptr noundef %0, ptr noundef %1, ptr noundef %2, ptr noundef nonnull writeonly captures(none) initializes((0, 8)) %3) unnamed_addr #0 {
  %5 = getelementptr inbounds nuw i8, ptr %0, i64 112
  %6 = load ptr, ptr %5, align 8, !tbaa !16
  %7 = getelementptr inbounds nuw i8, ptr %6, i64 60
  %8 = load i16, ptr %7, align 4, !tbaa !112
  store i64 0, ptr %3, align 8, !tbaa !39
  %9 = getelementptr i8, ptr %6, i64 56
  %.val.val = load i8, ptr %9, align 8, !tbaa !63
  %10 = and i8 %.val.val, 6
  %.not21 = icmp eq i8 %10, 0
  br i1 %.not21, label %35, label %11

11:                                               ; preds = %4
  %12 = getelementptr inbounds nuw i8, ptr %6, i64 2032
  %13 = load i16, ptr %12, align 8, !tbaa !117
  %.not19 = icmp eq i16 %13, 0
  br i1 %.not19, label %15, label %14

14:                                               ; preds = %11
  tail call void (ptr, i32, ptr, i32, ptr, ...) @mbedtls_debug_print_msg(ptr noundef nonnull %0, i32 noundef 4, ptr noundef nonnull @.str, i32 noundef 2214, ptr noundef nonnull @.str.97) #9
  br label %35

15:                                               ; preds = %11
  %16 = zext i16 %8 to i32
  %17 = icmp eq i16 %8, 0
  br i1 %17, label %18, label %19

18:                                               ; preds = %15
  tail call void (ptr, i32, ptr, i32, ptr, ...) @mbedtls_debug_print_msg(ptr noundef nonnull %0, i32 noundef 1, ptr noundef nonnull @.str, i32 noundef 2219, ptr noundef nonnull @.str.98) #9
  br label %35

19:                                               ; preds = %15
  %20 = icmp ule ptr %1, %2
  %21 = ptrtoint ptr %2 to i64
  %22 = ptrtoint ptr %1 to i64
  %23 = sub i64 %21, %22
  %24 = icmp ugt i64 %23, 5
  %narrow.i.not = and i1 %20, %24
  br i1 %narrow.i.not, label %25, label %35

25:                                               ; preds = %19
  store i16 13056, ptr %1, align 1
  %26 = getelementptr inbounds nuw i8, ptr %1, i64 2
  store i16 512, ptr %26, align 1
  %27 = getelementptr inbounds nuw i8, ptr %1, i64 4
  %28 = tail call i16 @llvm.bswap.i16(i16 %8)
  store i16 %28, ptr %27, align 1
  %29 = tail call ptr @mbedtls_ssl_named_group_to_str(i16 noundef zeroext %8) #9
  tail call void (ptr, i32, ptr, i32, ptr, ...) @mbedtls_debug_print_msg(ptr noundef nonnull %0, i32 noundef 3, ptr noundef nonnull @.str, i32 noundef 2237, ptr noundef nonnull @.str.99, ptr noundef %29, i32 noundef %16) #9
  store i64 6, ptr %3, align 8, !tbaa !39
  %30 = tail call i32 @mbedtls_ssl_get_extension_mask(i32 noundef 51) #9
  %31 = load ptr, ptr %5, align 8, !tbaa !16
  %32 = getelementptr inbounds nuw i8, ptr %31, i64 3272
  %33 = load i32, ptr %32, align 8, !tbaa !77
  %34 = or i32 %33, %30
  store i32 %34, ptr %32, align 8, !tbaa !77
  br label %35

35:                                               ; preds = %19, %4, %25, %18, %14
  %.0 = phi i32 [ 0, %14 ], [ -28160, %18 ], [ 0, %25 ], [ 0, %4 ], [ -27136, %19 ]
  ret i32 %.0
}